; Function Attrs: nounwind uwtable
define dso_local ptr @FigureIndexColname(ptr noundef captures(address_is_null) %0) local_unnamed_addr #0 {
  %2 = alloca ptr, align 8
  call void @llvm.lifetime.start.p0(i64 8, ptr nonnull %2) #8
  store ptr null, ptr %2, align 8
  %3 = call fastcc i32 @FigureColnameInternal(ptr noundef %0, ptr noundef %2)
  %4 = load ptr, ptr %2, align 8
  call void @llvm.lifetime.end.p0(i64 8, ptr nonnull %2) #8
  ret ptr %4
}